Certificate:
    Data:
        Version: 3 (0x2)
        Serial Number:
            9a:79:56:c6:66:5c:00:cc:3e:2e:cf:8c:9f:a5:4e:59
        Signature Algorithm: sha256WithRSAEncryption
        Issuer: CN=Easy-RSA CA
        Validity
            Not Before: Jan 14 03:20:11 2024 GMT
            Not After : Apr 18 03:20:11 2026 GMT
        Subject: CN=ling
        Subject Public Key Info:
            Public Key Algorithm: rsaEncryption
                RSA Public-Key: (2048 bit)
                Modulus:
                    00:d6:d6:e9:69:46:b8:32:92:34:0b:28:2e:1b:d4:
                    1b:f8:6a:f0:4f:71:90:43:89:93:4a:cb:63:af:e8:
                    8c:e1:cb:74:1c:16:62:b8:17:aa:f0:e7:47:8d:d8:
                    6d:46:63:6b:cf:08:b0:a5:89:2f:17:ef:fe:2c:bc:
                    09:c0:e3:b3:3a:a7:17:f0:54:1e:e0:42:35:df:b2:
                    79:8a:7f:9b:87:b9:ed:e4:27:ad:37:79:ae:de:16:
                    b3:66:31:1b:57:a3:fa:e3:d9:87:33:28:e2:dd:3d:
                    0a:e9:bb:60:82:76:22:4a:59:47:cf:d9:32:04:7e:
                    03:f9:63:c9:25:03:4e:35:d5:01:36:92:63:aa:31:
                    c0:c5:92:77:4b:3b:9a:00:8d:1c:08:cd:36:14:4b:
                    e1:84:17:bb:68:cf:30:80:5a:2f:97:25:36:66:58:
                    df:ad:63:47:f2:d4:fd:b0:96:a2:62:ef:2c:95:c2:
                    06:ed:6c:5d:49:22:ac:aa:28:13:ea:70:0d:a1:25:
                    6f:17:ea:be:f2:b9:f2:27:f8:1d:f9:d6:9d:24:f0:
                    cd:db:64:d9:24:4e:4e:74:ce:d6:e5:1c:9e:b7:fa:
                    df:61:d6:8a:73:d5:4a:da:bc:4b:b8:4c:e2:58:16:
                    47:2c:b0:7b:3d:32:d4:2e:46:69:d4:4b:dd:66:91:
                    70:7b
                Exponent: 65537 (0x10001)
        X509v3 extensions:
            X509v3 Basic Constraints: 
                CA:FALSE
            X509v3 Subject Key Identifier: 
                37:B0:B5:4B:E2:6D:06:C9:E6:17:77:6C:24:24:2B:B4:3C:87:EC:D3
            X509v3 Authority Key Identifier: 
                keyid:98:A3:B0:2B:F0:41:47:FE:62:FD:DC:05:2C:C6:BF:49:D7:5C:10:E1
                DirName:/CN=Easy-RSA CA
                serial:40:92:3E:C4:0C:C1:C9:49:09:4F:EC:91:D1:44:B2:A7:7A:98:EF:75

            X509v3 Extended Key Usage: 
                TLS Web Client Authentication
            X509v3 Key Usage: 
                Digital Signature
    Signature Algorithm: sha256WithRSAEncryption
         a4:2b:87:df:36:94:55:59:2d:76:57:8d:21:58:72:73:6e:2c:
         37:a3:e3:26:f4:f0:6b:09:62:a0:63:44:6c:53:f3:8b:22:f3:
         b6:08:74:42:60:dc:d3:70:8e:46:d0:e9:fd:43:64:c9:78:86:
         04:fa:f1:45:c7:f1:98:f1:a9:2f:77:06:88:3b:5f:b6:7f:59:
         6b:53:34:f2:77:09:9e:3a:f1:a1:e5:d5:c1:5d:26:13:f1:bc:
         43:0f:0b:76:b2:71:9d:85:7e:b7:87:14:1e:70:77:13:41:bd:
         8d:b1:a9:01:7a:82:3c:6a:64:6c:d3:45:c5:69:b9:82:a7:07:
         13:11:d6:cc:ee:6f:37:53:75:f7:3b:7e:0c:ab:ed:f6:16:f1:
         01:e6:db:77:fe:69:d0:47:a5:60:c6:d0:c8:49:de:d4:a7:6d:
         cf:b5:08:55:7c:52:fa:07:21:fc:2a:8e:8e:8d:5c:03:07:81:
         7d:83:e8:dd:17:de:d6:93:86:40:1e:f5:3c:4c:e6:40:80:2d:
         35:f6:18:d7:58:d5:84:5a:a1:9c:5f:05:2d:bf:05:b6:83:e3:
         af:af:82:f5:ad:78:ac:57:97:d6:45:53:7a:08:26:63:b4:c5:
         e1:c6:ac:fb:cf:f4:b6:25:e2:19:e7:fa:7d:00:70:67:34:07:
         39:0e:48:ce
-----BEGIN CERTIFICATE-----
MIIDUzCCAjugAwIBAgIRAJp5VsZmXADMPi7PjJ+lTlkwDQYJKoZIhvcNAQELBQAw
FjEUMBIGA1UEAwwLRWFzeS1SU0EgQ0EwHhcNMjQwMTE0MDMyMDExWhcNMjYwNDE4
MDMyMDExWjAPMQ0wCwYDVQQDDARsaW5nMIIBIjANBgkqhkiG9w0BAQEFAAOCAQ8A
MIIBCgKCAQEA1tbpaUa4MpI0CyguG9Qb+GrwT3GQQ4mTSstjr+iM4ct0HBZiuBeq
8OdHjdhtRmNrzwiwpYkvF+/+LLwJwOOzOqcX8FQe4EI137J5in+bh7nt5CetN3mu
3hazZjEbV6P649mHMyji3T0K6btggnYiSllHz9kyBH4D+WPJJQNONdUBNpJjqjHA
xZJ3SzuaAI0cCM02FEvhhBe7aM8wgFovlyU2ZljfrWNH8tT9sJaiYu8slcIG7Wxd
SSKsqigT6nANoSVvF+q+8rnyJ/gd+dadJPDN22TZJE5OdM7W5Ryet/rfYdaKc9VK
2rxLuEziWBZHLLB7PTLULkZp1EvdZpFwewIDAQABo4GiMIGfMAkGA1UdEwQCMAAw
HQYDVR0OBBYEFDewtUvibQbJ5hd3bCQkK7Q8h+zTMFEGA1UdIwRKMEiAFJijsCvw
QUf+Yv3cBSzGv0nXXBDhoRqkGDAWMRQwEgYDVQQDDAtFYXN5LVJTQSBDQYIUQJI+
xAzByUkJT+yR0USyp3qY73UwEwYDVR0lBAwwCgYIKwYBBQUHAwIwCwYDVR0PBAQD
AgeAMA0GCSqGSIb3DQEBCwUAA4IBAQCkK4ffNpRVWS12V40hWHJzbiw3o+Mm9PBr
CWKgY0RsU/OLIvO2CHRCYNzTcI5G0On9Q2TJeIYE+vFFx/GY8akvdwaIO1+2f1lr
UzTydwmeOvGh5dXBXSYT8bxDDwt2snGdhX63hxQecHcTQb2NsakBeoI8amRs00XF
abmCpwcTEdbM7m83U3X3O34Mq+32FvEB5tt3/mnQR6VgxtDISd7Up23PtQhVfFL6
ByH8Ko6OjVwDB4F9g+jdF97Wk4ZAHvU8TOZAgC019hjXWNWEWqGcXwUtvwW2g+Ov
r4L1rXisV5fWRVN6CCZjtMXhxqz7z/S2JeIZ5/p9AHBnNAc5DkjO
-----END CERTIFICATE-----
